target datalayout = "e-m:e-p270:32:32-p271:32:32-p272:64:64-i64:64-i128:128-f80:128-n8:16:32:64-S128"
target triple = "x86_64-pc-linux-gnu"

%"class.llvm::StringRef" = type { ptr, i64 }
%"class.llvm::MemoryBufferRef" = type { %"class.llvm::StringRef", %"class.llvm::StringRef" }
%"class.llvm::Triple" = type { %"class.std::__cxx11::basic_string", i32, i32, i32, i32, i32, i32 }
%"class.std::__cxx11::basic_string" = type { %"struct.std::__cxx11::basic_string<char>::_Alloc_hider", i64, %union.anon.13 }
%"struct.std::__cxx11::basic_string<char>::_Alloc_hider" = type { ptr }
%union.anon.13 = type { i64, [8 x i8] }
%"class.llvm::Twine" = type <{ %"union.llvm::Twine::Child", %"union.llvm::Twine::Child", i8, i8, [6 x i8] }>
%"union.llvm::Twine::Child" = type { %struct.anon.14 }
%struct.anon.14 = type { ptr, i64 }
%"class.llvm::object::Binary" = type { ptr, i32, %"class.llvm::MemoryBufferRef" }

@.str.4 = private unnamed_addr constant [16 x i8] c"thumbv7-windows\00", align 1

; Function Attrs: mustprogress nounwind uwtable
define linkonce_odr hidden noundef ptr @_ZN4llvm16cast_convert_valINS_6object14COFFObjectFileEPKNS1_10ObjectFileES5_E4doitES5_(ptr noundef %0) #0 comdat align 2 {
  %2 = alloca ptr, align 8
  store ptr %0, ptr %2, align 8
  %3 = load ptr, ptr %2, align 8
  ret ptr %3
}

; Function Attrs: mustprogress nounwind uwtable
define linkonce_odr hidden noundef i32 @_ZNK4llvm6Triple7getArchEv(ptr noundef nonnull align 8 dereferenceable(56) %0) #0 comdat align 2 {
  %2 = alloca ptr, align 8
  store ptr %0, ptr %2, align 8
  %3 = load ptr, ptr %2, align 8
  %4 = getelementptr inbounds nuw %"class.llvm::Triple", ptr %3, i32 0, i32 1
  %5 = load i32, ptr %4, align 8
  ret i32 %5
}

; Function Attrs: mustprogress nounwind uwtable
define linkonce_odr hidden noundef ptr @_ZN4llvm8CastInfoINS_6object14COFFObjectFileEPKNS1_10ObjectFileEvE6doCastERKS5_(ptr noundef nonnull align 8 dereferenceable(8) %0) #0 comdat align 2 {
  %2 = alloca ptr, align 8
  store ptr %0, ptr %2, align 8
  %3 = load ptr, ptr %2, align 8
  %4 = load ptr, ptr %3, align 8
  %5 = call noundef ptr @_ZN4llvm16cast_convert_valINS_6object14COFFObjectFileEPKNS1_10ObjectFileES5_E4doitES5_(ptr noundef %4)
  ret ptr %5
}

; Function Attrs: mustprogress nounwind uwtable
define linkonce_odr hidden void @_ZN4llvm6TripleD2Ev(ptr noundef nonnull align 8 dereferenceable(56) %0) unnamed_addr #0 comdat align 2 {
  %2 = alloca ptr, align 8
  store ptr %0, ptr %2, align 8
  %3 = load ptr, ptr %2, align 8
  %4 = getelementptr inbounds nuw %"class.llvm::Triple", ptr %3, i32 0, i32 0
  call void @_ZNSt7__cxx1112basic_stringIcSt11char_traitsIcESaIcEED1Ev(ptr noundef nonnull align 8 dereferenceable(32) %4) #11
  ret void
}

; Function Attrs: mustprogress nounwind uwtable
define linkonce_odr hidden noundef zeroext i1 @_ZNK4llvm6Triple7isNVPTXEv(ptr noundef nonnull align 8 dereferenceable(56) %0) #0 comdat align 2 {
  %2 = alloca ptr, align 8
  store ptr %0, ptr %2, align 8
  %3 = load ptr, ptr %2, align 8
  %4 = call noundef i32 @_ZNK4llvm6Triple7getArchEv(ptr noundef nonnull align 8 dereferenceable(56) %3)
  %5 = icmp eq i32 %4, 41
  br i1 %5, label %9, label %6

6:                                                ; preds = %1
  %7 = call noundef i32 @_ZNK4llvm6Triple7getArchEv(ptr noundef nonnull align 8 dereferenceable(56) %3)
  %8 = icmp eq i32 %7, 42
  br label %9

9:                                                ; preds = %6, %1
  %10 = phi i1 [ true, %1 ], [ %8, %6 ]
  ret i1 %10
}

; Function Attrs: mustprogress nounwind uwtable
define linkonce_odr hidden noundef zeroext i1 @_ZNK4llvm6Triple8isAMDGPUEv(ptr noundef nonnull align 8 dereferenceable(56) %0) #0 comdat align 2 {
  %2 = alloca ptr, align 8
  store ptr %0, ptr %2, align 8
  %3 = load ptr, ptr %2, align 8
  %4 = call noundef i32 @_ZNK4llvm6Triple7getArchEv(ptr noundef nonnull align 8 dereferenceable(56) %3)
  %5 = icmp eq i32 %4, 25
  br i1 %5, label %9, label %6

6:                                                ; preds = %1
  %7 = call noundef i32 @_ZNK4llvm6Triple7getArchEv(ptr noundef nonnull align 8 dereferenceable(56) %3)
  %8 = icmp eq i32 %7, 26
  br label %9

9:                                                ; preds = %6, %1
  %10 = phi i1 [ true, %1 ], [ %8, %6 ]
  ret i1 %10
}

; Function Attrs: mustprogress nounwind uwtable
define linkonce_odr hidden noundef zeroext i1 @_ZNK4llvm6object6Binary6isGOFFEv(ptr noundef nonnull align 8 dereferenceable(48) %0) #0 comdat align 2 {
  %2 = alloca ptr, align 8
  store ptr %0, ptr %2, align 8
  %3 = load ptr, ptr %2, align 8
  %4 = getelementptr inbounds nuw %"class.llvm::object::Binary", ptr %3, i32 0, i32 1
  %5 = load i32, ptr %4, align 8
  %6 = icmp eq i32 %5, 21
  ret i1 %6
}

; Function Attrs: mustprogress nounwind uwtable
define linkonce_odr hidden noundef zeroext i1 @_ZNK4llvm6object6Binary7isXCOFFEv(ptr noundef nonnull align 8 dereferenceable(48) %0) #0 comdat align 2 {
  %2 = alloca ptr, align 8
  store ptr %0, ptr %2, align 8
  %3 = load ptr, ptr %2, align 8
  %4 = getelementptr inbounds nuw %"class.llvm::object::Binary", ptr %3, i32 0, i32 1
  %5 = load i32, ptr %4, align 8
  %6 = icmp eq i32 %5, 11
  br i1 %6, label %11, label %7

7:                                                ; preds = %1
  %8 = getelementptr inbounds nuw %"class.llvm::object::Binary", ptr %3, i32 0, i32 1
  %9 = load i32, ptr %8, align 8
  %10 = icmp eq i32 %9, 12
  br label %11

11:                                               ; preds = %7, %1
  %12 = phi i1 [ true, %1 ], [ %10, %7 ]
  ret i1 %12
}

; Function Attrs: mustprogress nounwind uwtable
define linkonce_odr hidden void @_ZN4llvm5TwineC2EPKc(ptr noundef nonnull align 8 dereferenceable(34) %0, ptr noundef %1) unnamed_addr #0 comdat align 2 {
  %3 = alloca ptr, align 8
  %4 = alloca ptr, align 8
  store ptr %0, ptr %3, align 8
  store ptr %1, ptr %4, align 8
  %5 = load ptr, ptr %3, align 8
  %6 = getelementptr inbounds nuw %"class.llvm::Twine", ptr %5, i32 0, i32 2
  store i8 1, ptr %6, align 8
  %7 = getelementptr inbounds nuw %"class.llvm::Twine", ptr %5, i32 0, i32 3
  store i8 1, ptr %7, align 1
  %8 = load ptr, ptr %4, align 8
  %9 = getelementptr inbounds i8, ptr %8, i64 0
  %10 = load i8, ptr %9, align 1
  %11 = sext i8 %10 to i32
  %12 = icmp ne i32 %11, 0
  br i1 %12, label %13, label %17

13:                                               ; preds = %2
  %14 = load ptr, ptr %4, align 8
  %15 = getelementptr inbounds nuw %"class.llvm::Twine", ptr %5, i32 0, i32 0
  store ptr %14, ptr %15, align 8
  %16 = getelementptr inbounds nuw %"class.llvm::Twine", ptr %5, i32 0, i32 2
  store i8 3, ptr %16, align 8
  br label %19

17:                                               ; preds = %2
  %18 = getelementptr inbounds nuw %"class.llvm::Twine", ptr %5, i32 0, i32 2
  store i8 1, ptr %18, align 8
  br label %19

19:                                               ; preds = %17, %13
  ret void
}

; Function Attrs: mustprogress nounwind uwtable
define linkonce_odr hidden noundef ptr @_ZN4llvm4castINS_6object14COFFObjectFileEKNS1_10ObjectFileEEEDcPT0_(ptr noundef %0) #0 comdat {
  %2 = alloca ptr, align 8
  store ptr %0, ptr %2, align 8
  %3 = call noundef ptr @_ZN4llvm8CastInfoINS_6object14COFFObjectFileEPKNS1_10ObjectFileEvE6doCastERKS5_(ptr noundef nonnull align 8 dereferenceable(8) %2)
  ret ptr %3
}

; Function Attrs: mustprogress nounwind uwtable
define linkonce_odr hidden noundef zeroext i1 @_ZNK4llvm6object6Binary6isCOFFEv(ptr noundef nonnull align 8 dereferenceable(48) %0) #0 comdat align 2 {
  %2 = alloca ptr, align 8
  store ptr %0, ptr %2, align 8
  %3 = load ptr, ptr %2, align 8
  %4 = getelementptr inbounds nuw %"class.llvm::object::Binary", ptr %3, i32 0, i32 1
  %5 = load i32, ptr %4, align 8
  %6 = icmp eq i32 %5, 10
  ret i1 %6
}

; Function Attrs: mustprogress nounwind uwtable
define linkonce_odr hidden noundef zeroext i1 @_ZNK4llvm6object6Binary7isMachOEv(ptr noundef nonnull align 8 dereferenceable(48) %0) #0 comdat align 2 {
  %2 = alloca ptr, align 8
  store ptr %0, ptr %2, align 8
  %3 = load ptr, ptr %2, align 8
  %4 = getelementptr inbounds nuw %"class.llvm::object::Binary", ptr %3, i32 0, i32 1
  %5 = load i32, ptr %4, align 8
  %6 = icmp uge i32 %5, 17
  br i1 %6, label %7, label %11

7:                                                ; preds = %1
  %8 = getelementptr inbounds nuw %"class.llvm::object::Binary", ptr %3, i32 0, i32 1
  %9 = load i32, ptr %8, align 8
  %10 = icmp ule i32 %9, 20
  br label %11

11:                                               ; preds = %7, %1
  %12 = phi i1 [ false, %1 ], [ %10, %7 ]
  ret i1 %12
}

; Function Attrs: mustprogress nounwind uwtable
define linkonce_odr hidden void @_ZN4llvm6TripleC2Ev(ptr noundef nonnull align 8 dereferenceable(56) %0) unnamed_addr #0 comdat align 2 {
  %2 = alloca ptr, align 8
  store ptr %0, ptr %2, align 8
  %3 = load ptr, ptr %2, align 8
  %4 = getelementptr inbounds nuw %"class.llvm::Triple", ptr %3, i32 0, i32 0
  call void @_ZNSt7__cxx1112basic_stringIcSt11char_traitsIcESaIcEEC1Ev(ptr noundef nonnull align 8 dereferenceable(32) %4) #11
  %5 = getelementptr inbounds nuw %"class.llvm::Triple", ptr %3, i32 0, i32 1
  store i32 0, ptr %5, align 8
  %6 = getelementptr inbounds nuw %"class.llvm::Triple", ptr %3, i32 0, i32 2
  store i32 0, ptr %6, align 4
  %7 = getelementptr inbounds nuw %"class.llvm::Triple", ptr %3, i32 0, i32 3
  store i32 0, ptr %7, align 8
  %8 = getelementptr inbounds nuw %"class.llvm::Triple", ptr %3, i32 0, i32 4
  store i32 0, ptr %8, align 4
  %9 = getelementptr inbounds nuw %"class.llvm::Triple", ptr %3, i32 0, i32 5
  store i32 0, ptr %9, align 8
  %10 = getelementptr inbounds nuw %"class.llvm::Triple", ptr %3, i32 0, i32 6
  store i32 0, ptr %10, align 4
  ret void
}

; Function Attrs: mustprogress nounwind uwtable
define dso_local void @_ZNK4llvm6object10ObjectFile10makeTripleEv(ptr dead_on_unwind noalias writable sret(%"class.llvm::Triple") align 8 %0, ptr noundef nonnull align 8 dereferenceable(48) %1) #0 align 2 {
  %3 = alloca ptr, align 8
  %4 = alloca ptr, align 8
  %5 = alloca i1, align 1
  %6 = alloca i32, align 4
  %7 = alloca i32, align 4
  %8 = alloca ptr, align 8
  %9 = alloca %"class.llvm::Twine", align 8
  store ptr %0, ptr %3, align 8
  store ptr %1, ptr %4, align 8
  %10 = load ptr, ptr %4, align 8
  store i1 false, ptr %5, align 1
  call void @_ZN4llvm6TripleC2Ev(ptr noundef nonnull align 8 dereferenceable(56) %0) #11
  %11 = load ptr, ptr %10, align 8
  %12 = getelementptr inbounds ptr, ptr %11, i64 49
  %13 = load ptr, ptr %12, align 8
  %14 = call noundef i32 %13(ptr noundef nonnull align 8 dereferenceable(48) %10)
  store i32 %14, ptr %6, align 4
  %15 = load i32, ptr %6, align 4
  call void @_ZN4llvm6Triple7setArchENS0_8ArchTypeENS0_11SubArchTypeE(ptr noundef nonnull align 8 dereferenceable(56) %0, i32 noundef %15, i32 noundef 0)
  %16 = load ptr, ptr %10, align 8
  %17 = getelementptr inbounds ptr, ptr %16, i64 50
  %18 = load ptr, ptr %17, align 8
  %19 = call noundef i32 %18(ptr noundef nonnull align 8 dereferenceable(48) %10)
  store i32 %19, ptr %7, align 4
  %20 = load i32, ptr %7, align 4
  %21 = icmp ne i32 %20, 0
  br i1 %21, label %22, label %24

22:                                               ; preds = %2
  %23 = load i32, ptr %7, align 4
  call void @_ZN4llvm6Triple5setOSENS0_6OSTypeE(ptr noundef nonnull align 8 dereferenceable(56) %0, i32 noundef %23)
  br label %24

24:                                               ; preds = %22, %2
  %25 = load i32, ptr %6, align 4
  %26 = icmp eq i32 %25, 1
  br i1 %26, label %30, label %27

27:                                               ; preds = %24
  %28 = load i32, ptr %6, align 4
  %29 = icmp eq i32 %28, 2
  br i1 %29, label %30, label %34

30:                                               ; preds = %27, %24
  %31 = load ptr, ptr %10, align 8
  %32 = getelementptr inbounds ptr, ptr %31, i64 53
  %33 = load ptr, ptr %32, align 8
  call void %33(ptr noundef nonnull align 8 dereferenceable(48) %10, ptr noundef nonnull align 8 dereferenceable(56) %0)
  br label %34

34:                                               ; preds = %30, %27
  %35 = call noundef zeroext i1 @_ZNK4llvm6object6Binary7isMachOEv(ptr noundef nonnull align 8 dereferenceable(48) %10)
  br i1 %35, label %36, label %37

36:                                               ; preds = %34
  call void @_ZN4llvm6Triple15setObjectFormatENS0_16ObjectFormatTypeE(ptr noundef nonnull align 8 dereferenceable(56) %0, i32 noundef 5)
  br label %66

37:                                               ; preds = %34
  %38 = call noundef zeroext i1 @_ZNK4llvm6object6Binary6isCOFFEv(ptr noundef nonnull align 8 dereferenceable(48) %10)
  br i1 %38, label %39, label %49

39:                                               ; preds = %37
  %40 = call noundef ptr @_ZN4llvm4castINS_6object14COFFObjectFileEKNS1_10ObjectFileEEEDcPT0_(ptr noundef %10)
  store ptr %40, ptr %8, align 8
  %41 = load ptr, ptr %8, align 8
  %42 = load ptr, ptr %41, align 8
  %43 = getelementptr inbounds ptr, ptr %42, i64 49
  %44 = load ptr, ptr %43, align 8
  %45 = call noundef i32 %44(ptr noundef nonnull align 8 dereferenceable(232) %41)
  %46 = icmp eq i32 %45, 35
  br i1 %46, label %47, label %48

47:                                               ; preds = %39
  call void @_ZN4llvm5TwineC2EPKc(ptr noundef nonnull align 8 dereferenceable(34) %9, ptr noundef @.str.4)
  call void @_ZN4llvm6Triple9setTripleERKNS_5TwineE(ptr noundef nonnull align 8 dereferenceable(56) %0, ptr noundef nonnull align 8 dereferenceable(34) %9)
  br label %48

48:                                               ; preds = %47, %39
  br label %65

49:                                               ; preds = %37
  %50 = call noundef zeroext i1 @_ZNK4llvm6object6Binary7isXCOFFEv(ptr noundef nonnull align 8 dereferenceable(48) %10)
  br i1 %50, label %51, label %52

51:                                               ; preds = %49
  call void @_ZN4llvm6Triple5setOSENS0_6OSTypeE(ptr noundef nonnull align 8 dereferenceable(56) %0, i32 noundef 19)
  call void @_ZN4llvm6Triple15setObjectFormatENS0_16ObjectFormatTypeE(ptr noundef nonnull align 8 dereferenceable(56) %0, i32 noundef 8)
  br label %64

52:                                               ; preds = %49
  %53 = call noundef zeroext i1 @_ZNK4llvm6object6Binary6isGOFFEv(ptr noundef nonnull align 8 dereferenceable(48) %10)
  br i1 %53, label %54, label %55

54:                                               ; preds = %52
  call void @_ZN4llvm6Triple5setOSENS0_6OSTypeE(ptr noundef nonnull align 8 dereferenceable(56) %0, i32 noundef 15)
  call void @_ZN4llvm6Triple15setObjectFormatENS0_16ObjectFormatTypeE(ptr noundef nonnull align 8 dereferenceable(56) %0, i32 noundef 4)
  br label %63

55:                                               ; preds = %52
  %56 = call noundef zeroext i1 @_ZNK4llvm6Triple8isAMDGPUEv(ptr noundef nonnull align 8 dereferenceable(56) %0)
  br i1 %56, label %57, label %58

57:                                               ; preds = %55
  call void @_ZN4llvm6Triple9setVendorENS0_10VendorTypeE(ptr noundef nonnull align 8 dereferenceable(56) %0, i32 noundef 10)
  br label %62

58:                                               ; preds = %55
  %59 = call noundef zeroext i1 @_ZNK4llvm6Triple7isNVPTXEv(ptr noundef nonnull align 8 dereferenceable(56) %0)
  br i1 %59, label %60, label %61

60:                                               ; preds = %58
  call void @_ZN4llvm6Triple9setVendorENS0_10VendorTypeE(ptr noundef nonnull align 8 dereferenceable(56) %0, i32 noundef 8)
  br label %61

61:                                               ; preds = %60, %58
  br label %62

62:                                               ; preds = %61, %57
  br label %63

63:                                               ; preds = %62, %54
  br label %64

64:                                               ; preds = %63, %51
  br label %65

65:                                               ; preds = %64, %48
  br label %66

66:                                               ; preds = %65, %36
  store i1 true, ptr %5, align 1
  %67 = load i1, ptr %5, align 1
  br i1 %67, label %69, label %68

68:                                               ; preds = %66
  call void @_ZN4llvm6TripleD2Ev(ptr noundef nonnull align 8 dereferenceable(56) %0) #11
  br label %69

69:                                               ; preds = %68, %66
  ret void
}