; Function Attrs: mustprogress nounwind uwtable
define dso_local void @_ZNK4llvm6object10ObjectFile10makeTripleEv(ptr dead_on_unwind noalias nonnull writable sret(%"class.llvm::Triple") align 8 %0, ptr noundef nonnull align 8 dereferenceable(48) %1) local_unnamed_addr #0 align 2 {
  %3 = alloca %"class.llvm::Twine", align 8
  tail call void @_ZNSt7__cxx1112basic_stringIcSt11char_traitsIcESaIcEEC1Ev(ptr noundef nonnull align 8 dereferenceable(56) %0) #16
  %4 = getelementptr inbounds nuw i8, ptr %0, i64 32
  tail call void @llvm.memset.p0.i64(ptr noundef nonnull align 8 dereferenceable(24) %4, i8 0, i64 24, i1 false)
  %5 = load ptr, ptr %1, align 8
  %6 = getelementptr inbounds nuw i8, ptr %5, i64 392
  %7 = load ptr, ptr %6, align 8
  %8 = tail call noundef i32 %7(ptr noundef nonnull align 8 dereferenceable(48) %1) #16
  tail call void @_ZN4llvm6Triple7setArchENS0_8ArchTypeENS0_11SubArchTypeE(ptr noundef nonnull align 8 dereferenceable(56) %0, i32 noundef %8, i32 noundef 0) #16
  %9 = load ptr, ptr %1, align 8
  %10 = getelementptr inbounds nuw i8, ptr %9, i64 400
  %11 = load ptr, ptr %10, align 8
  %12 = tail call noundef i32 %11(ptr noundef nonnull align 8 dereferenceable(48) %1) #16
  %.not = icmp eq i32 %12, 0
  br i1 %.not, label %14, label %13

13:                                               ; preds = %2
  tail call void @_ZN4llvm6Triple5setOSENS0_6OSTypeE(ptr noundef nonnull align 8 dereferenceable(56) %0, i32 noundef %12) #16
  br label %14

14:                                               ; preds = %13, %2
  %15 = add i32 %8, -1
  %or.cond = icmp ult i32 %15, 2
  br i1 %or.cond, label %16, label %20

16:                                               ; preds = %14
  %17 = load ptr, ptr %1, align 8
  %18 = getelementptr inbounds nuw i8, ptr %17, i64 424
  %19 = load ptr, ptr %18, align 8
  tail call void %19(ptr noundef nonnull align 8 dereferenceable(48) %1, ptr noundef nonnull align 8 dereferenceable(56) %0) #16
  br label %20

20:                                               ; preds = %14, %16
  %21 = getelementptr inbounds nuw i8, ptr %1, i64 8
  %22 = load i32, ptr %21, align 8
  %23 = add i32 %22, -17
  %spec.select.i = icmp ult i32 %23, 4
  br i1 %spec.select.i, label %24, label %25

24:                                               ; preds = %20
  tail call void @_ZN4llvm6Triple15setObjectFormatENS0_16ObjectFormatTypeE(ptr noundef nonnull align 8 dereferenceable(56) %0, i32 noundef 5) #16
  br label %49

25:                                               ; preds = %20
  %26 = icmp eq i32 %22, 10
  br i1 %26, label %27, label %36

27:                                               ; preds = %25
  %28 = load ptr, ptr %1, align 8
  %29 = getelementptr inbounds nuw i8, ptr %28, i64 392
  %30 = load ptr, ptr %29, align 8
  %31 = tail call noundef i32 %30(ptr noundef nonnull align 8 dereferenceable(232) %1) #16
  %32 = icmp eq i32 %31, 35
  br i1 %32, label %33, label %49

33:                                               ; preds = %27
  %34 = getelementptr inbounds nuw i8, ptr %3, i64 32
  %35 = getelementptr inbounds nuw i8, ptr %3, i64 33
  store i8 1, ptr %35, align 1
  store ptr @.str.4, ptr %3, align 8
  store i8 3, ptr %34, align 8
  call void @_ZN4llvm6Triple9setTripleERKNS_5TwineE(ptr noundef nonnull align 8 dereferenceable(56) %0, ptr noundef nonnull align 8 dereferenceable(34) %3) #16
  br label %49

36:                                               ; preds = %25
  %37 = add i32 %22, -11
  %spec.select.i8 = icmp ult i32 %37, 2
  br i1 %spec.select.i8, label %38, label %39

38:                                               ; preds = %36
  tail call void @_ZN4llvm6Triple5setOSENS0_6OSTypeE(ptr noundef nonnull align 8 dereferenceable(56) %0, i32 noundef 19) #16
  tail call void @_ZN4llvm6Triple15setObjectFormatENS0_16ObjectFormatTypeE(ptr noundef nonnull align 8 dereferenceable(56) %0, i32 noundef 8) #16
  br label %49

39:                                               ; preds = %36
  %40 = icmp eq i32 %22, 21
  br i1 %40, label %41, label %42

41:                                               ; preds = %39
  tail call void @_ZN4llvm6Triple5setOSENS0_6OSTypeE(ptr noundef nonnull align 8 dereferenceable(56) %0, i32 noundef 15) #16
  tail call void @_ZN4llvm6Triple15setObjectFormatENS0_16ObjectFormatTypeE(ptr noundef nonnull align 8 dereferenceable(56) %0, i32 noundef 4) #16
  br label %49

42:                                               ; preds = %39
  %43 = load i32, ptr %4, align 8
  %44 = add i32 %43, -25
  %spec.select.i9 = icmp ult i32 %44, 2
  br i1 %spec.select.i9, label %45, label %46

45:                                               ; preds = %42
  tail call void @_ZN4llvm6Triple9setVendorENS0_10VendorTypeE(ptr noundef nonnull align 8 dereferenceable(56) %0, i32 noundef 10) #16
  br label %49

46:                                               ; preds = %42
  %47 = add i32 %43, -41
  %spec.select.i10 = icmp ult i32 %47, 2
  br i1 %spec.select.i10, label %48, label %49

48:                                               ; preds = %46
  tail call void @_ZN4llvm6Triple9setVendorENS0_10VendorTypeE(ptr noundef nonnull align 8 dereferenceable(56) %0, i32 noundef 8) #16
  br label %49

49:                                               ; preds = %24, %38, %45, %48, %46, %41, %27, %33
  ret void
}